target datalayout = "e-m:e-p270:32:32-p271:32:32-p272:64:64-i64:64-i128:128-f80:128-n8:16:32:64-S128"
target triple = "x86_64-pc-linux-gnu"

%struct.ComplexMatrixN = type { i32, ptr, ptr }
%struct.Qureg = type { i32, i32, i32, i64, i64, i32, i32, %struct.ComplexArray, %struct.ComplexArray, %struct.ComplexArray, ptr, ptr, ptr, ptr, ptr, ptr }
%struct.ComplexArray = type { ptr, ptr }

; Function Attrs: nounwind uwtable
define void @densmatr_applyMultiQubitKrausSuperoperator(ptr noundef byval(%struct.Qureg) align 8 %0, ptr noundef %1, i32 noundef %2, ptr noundef byval(%struct.ComplexMatrixN) align 8 %3) #0 {
  %5 = alloca ptr, align 8
  %6 = alloca i32, align 4
  %7 = alloca i64, align 8
  %8 = alloca [200 x i32], align 16
  %9 = alloca i32, align 4
  store ptr %1, ptr %5, align 8, !tbaa !4
  store i32 %2, ptr %6, align 4, !tbaa !9
  call void @llvm.lifetime.start.p0(i64 8, ptr %7) #8
  store i64 0, ptr %7, align 8, !tbaa !11
  call void @llvm.lifetime.start.p0(i64 800, ptr %8) #8
  call void @llvm.lifetime.start.p0(i64 4, ptr %9) #8
  store i32 0, ptr %9, align 4, !tbaa !9
  br label %10

10:                                               ; preds = %37, %4
  %11 = load i32, ptr %9, align 4, !tbaa !9
  %12 = load i32, ptr %6, align 4, !tbaa !9
  %13 = icmp slt i32 %11, %12
  br i1 %13, label %15, label %14

14:                                               ; preds = %10
  call void @llvm.lifetime.end.p0(i64 4, ptr %9) #8
  br label %40

15:                                               ; preds = %10
  %16 = load ptr, ptr %5, align 8, !tbaa !4
  %17 = load i32, ptr %9, align 4, !tbaa !9
  %18 = sext i32 %17 to i64
  %19 = getelementptr inbounds i32, ptr %16, i64 %18
  %20 = load i32, ptr %19, align 4, !tbaa !9
  %21 = load i32, ptr %9, align 4, !tbaa !9
  %22 = sext i32 %21 to i64
  %23 = getelementptr inbounds [200 x i32], ptr %8, i64 0, i64 %22
  store i32 %20, ptr %23, align 4, !tbaa !9
  %24 = load ptr, ptr %5, align 8, !tbaa !4
  %25 = load i32, ptr %9, align 4, !tbaa !9
  %26 = sext i32 %25 to i64
  %27 = getelementptr inbounds i32, ptr %24, i64 %26
  %28 = load i32, ptr %27, align 4, !tbaa !9
  %29 = getelementptr inbounds nuw %struct.Qureg, ptr %0, i32 0, i32 1
  %30 = load i32, ptr %29, align 4, !tbaa !55
  %31 = add nsw i32 %28, %30
  %32 = load i32, ptr %9, align 4, !tbaa !9
  %33 = load i32, ptr %6, align 4, !tbaa !9
  %34 = add nsw i32 %32, %33
  %35 = sext i32 %34 to i64
  %36 = getelementptr inbounds [200 x i32], ptr %8, i64 0, i64 %35
  store i32 %31, ptr %36, align 4, !tbaa !9
  br label %37

37:                                               ; preds = %15
  %38 = load i32, ptr %9, align 4, !tbaa !9
  %39 = add nsw i32 %38, 1
  store i32 %39, ptr %9, align 4, !tbaa !9
  br label %10

40:                                               ; preds = %14
  %41 = load i64, ptr %7, align 8, !tbaa !11
  %42 = getelementptr inbounds [200 x i32], ptr %8, i64 0, i64 0
  %43 = load i32, ptr %6, align 4, !tbaa !9
  %44 = mul nsw i32 2, %43
  call void @statevec_multiControlledMultiQubitUnitary(ptr noundef byval(%struct.Qureg) align 8 %0, i64 noundef %41, ptr noundef %42, i32 noundef %44, ptr noundef byval(%struct.ComplexMatrixN) align 8 %3)
  call void @llvm.lifetime.end.p0(i64 800, ptr %8) #8
  call void @llvm.lifetime.end.p0(i64 8, ptr %7) #8
  ret void
}

; Function Attrs: nounwind uwtable
define void @bindArraysToStackComplexMatrixN(ptr dead_on_unwind noalias writable sret(%struct.ComplexMatrixN) align 8 %0, i32 noundef %1, ptr noundef %2, ptr noundef %3, ptr noundef %4, ptr noundef %5) #0 {
  %7 = alloca i32, align 4
  %8 = alloca ptr, align 8
  %9 = alloca ptr, align 8
  %10 = alloca ptr, align 8
  %11 = alloca ptr, align 8
  %12 = alloca i32, align 4
  %13 = alloca i32, align 4
  store i32 %1, ptr %7, align 4, !tbaa !9
  store ptr %2, ptr %8, align 8, !tbaa !27
  store ptr %3, ptr %9, align 8, !tbaa !27
  store ptr %4, ptr %10, align 8, !tbaa !62
  store ptr %5, ptr %11, align 8, !tbaa !62
  %14 = load i32, ptr %7, align 4, !tbaa !9
  %15 = shl i32 1, %14
  %16 = zext i32 %15 to i64
  %17 = load i32, ptr %7, align 4, !tbaa !9
  %18 = shl i32 1, %17
  %19 = zext i32 %18 to i64
  %20 = load i32, ptr %7, align 4, !tbaa !9
  %21 = getelementptr inbounds nuw %struct.ComplexMatrixN, ptr %0, i32 0, i32 0
  store i32 %20, ptr %21, align 8, !tbaa !22
  %22 = load ptr, ptr %10, align 8, !tbaa !62
  %23 = getelementptr inbounds nuw %struct.ComplexMatrixN, ptr %0, i32 0, i32 1
  store ptr %22, ptr %23, align 8, !tbaa !26
  %24 = load ptr, ptr %11, align 8, !tbaa !62
  %25 = getelementptr inbounds nuw %struct.ComplexMatrixN, ptr %0, i32 0, i32 2
  store ptr %24, ptr %25, align 8, !tbaa !29
  call void @llvm.lifetime.start.p0(i64 4, ptr %12) #8
  %26 = load i32, ptr %7, align 4, !tbaa !9
  %27 = shl i32 1, %26
  store i32 %27, ptr %12, align 4, !tbaa !9
  call void @llvm.lifetime.start.p0(i64 4, ptr %13) #8
  store i32 0, ptr %13, align 4, !tbaa !9
  br label %28

28:                                               ; preds = %54, %6
  %29 = load i32, ptr %13, align 4, !tbaa !9
  %30 = load i32, ptr %12, align 4, !tbaa !9
  %31 = icmp slt i32 %29, %30
  br i1 %31, label %33, label %32

32:                                               ; preds = %28
  call void @llvm.lifetime.end.p0(i64 4, ptr %13) #8
  br label %57

33:                                               ; preds = %28
  %34 = load ptr, ptr %8, align 8, !tbaa !27
  %35 = load i32, ptr %13, align 4, !tbaa !9
  %36 = sext i32 %35 to i64
  %37 = mul nsw i64 %36, %16
  %38 = getelementptr inbounds double, ptr %34, i64 %37
  %39 = getelementptr inbounds nuw %struct.ComplexMatrixN, ptr %0, i32 0, i32 1
  %40 = load ptr, ptr %39, align 8, !tbaa !26
  %41 = load i32, ptr %13, align 4, !tbaa !9
  %42 = sext i32 %41 to i64
  %43 = getelementptr inbounds ptr, ptr %40, i64 %42
  store ptr %38, ptr %43, align 8, !tbaa !27
  %44 = load ptr, ptr %9, align 8, !tbaa !27
  %45 = load i32, ptr %13, align 4, !tbaa !9
  %46 = sext i32 %45 to i64
  %47 = mul nsw i64 %46, %19
  %48 = getelementptr inbounds double, ptr %44, i64 %47
  %49 = getelementptr inbounds nuw %struct.ComplexMatrixN, ptr %0, i32 0, i32 2
  %50 = load ptr, ptr %49, align 8, !tbaa !29
  %51 = load i32, ptr %13, align 4, !tbaa !9
  %52 = sext i32 %51 to i64
  %53 = getelementptr inbounds ptr, ptr %50, i64 %52
  store ptr %48, ptr %53, align 8, !tbaa !27
  br label %54

54:                                               ; preds = %33
  %55 = load i32, ptr %13, align 4, !tbaa !9
  %56 = add nsw i32 %55, 1
  store i32 %56, ptr %13, align 4, !tbaa !9
  br label %28

57:                                               ; preds = %32
  call void @llvm.lifetime.end.p0(i64 4, ptr %12) #8
  ret void
}

; Function Attrs: nounwind uwtable
define void @densmatr_mixMultiQubitKrausMap(ptr noundef byval(%struct.Qureg) align 8 %0, ptr noundef %1, i32 noundef %2, ptr noundef %3, i32 noundef %4) #0 {
  %6 = alloca ptr, align 8
  %7 = alloca i32, align 4
  %8 = alloca ptr, align 8
  %9 = alloca i32, align 4
  %10 = alloca %struct.ComplexMatrixN, align 8
  %11 = alloca ptr, align 8
  %12 = alloca i64, align 8
  %13 = alloca i64, align 8
  %14 = alloca i64, align 8
  %15 = alloca i64, align 8
  %16 = alloca i64, align 8
  %17 = alloca i64, align 8
  %18 = alloca %struct.ComplexMatrixN, align 8
  %19 = alloca %struct.ComplexMatrixN, align 8
  store ptr %1, ptr %6, align 8, !tbaa !4
  store i32 %2, ptr %7, align 4, !tbaa !9
  store ptr %3, ptr %8, align 8, !tbaa !60
  store i32 %4, ptr %9, align 4, !tbaa !9
  call void @llvm.lifetime.start.p0(i64 24, ptr %10) #8
  %20 = load i32, ptr %7, align 4, !tbaa !9
  %21 = icmp slt i32 %20, 4
  br i1 %21, label %22, label %61

22:                                               ; preds = %5
  %23 = load i32, ptr %7, align 4, !tbaa !9
  %24 = mul nsw i32 2, %23
  %25 = shl i32 1, %24
  %26 = zext i32 %25 to i64
  %27 = load i32, ptr %7, align 4, !tbaa !9
  %28 = mul nsw i32 2, %27
  %29 = shl i32 1, %28
  %30 = zext i32 %29 to i64
  %31 = call ptr @llvm.stacksave.p0()
  store ptr %31, ptr %11, align 8
  %32 = mul nuw i64 %26, %30
  %33 = alloca double, i64 %32, align 16
  store i64 %26, ptr %12, align 8
  store i64 %30, ptr %13, align 8
  %34 = load i32, ptr %7, align 4, !tbaa !9
  %35 = mul nsw i32 2, %34
  %36 = shl i32 1, %35
  %37 = zext i32 %36 to i64
  %38 = load i32, ptr %7, align 4, !tbaa !9
  %39 = mul nsw i32 2, %38
  %40 = shl i32 1, %39
  %41 = zext i32 %40 to i64
  %42 = mul nuw i64 %37, %41
  %43 = alloca double, i64 %42, align 16
  store i64 %37, ptr %14, align 8
  store i64 %41, ptr %15, align 8
  %44 = load i32, ptr %7, align 4, !tbaa !9
  %45 = mul nsw i32 2, %44
  %46 = shl i32 1, %45
  %47 = zext i32 %46 to i64
  %48 = alloca ptr, i64 %47, align 16
  store i64 %47, ptr %16, align 8
  %49 = load i32, ptr %7, align 4, !tbaa !9
  %50 = mul nsw i32 2, %49
  %51 = shl i32 1, %50
  %52 = zext i32 %51 to i64
  %53 = alloca ptr, i64 %52, align 16
  store i64 %52, ptr %17, align 8
  call void @llvm.lifetime.start.p0(i64 24, ptr %18) #8
  %54 = load i32, ptr %7, align 4, !tbaa !9
  %55 = mul nsw i32 2, %54
  call void @bindArraysToStackComplexMatrixN(ptr dead_on_unwind writable sret(%struct.ComplexMatrixN) align 8 %18, i32 noundef %55, ptr noundef %33, ptr noundef %43, ptr noundef %48, ptr noundef %53)
  call void @llvm.memcpy.p0.p0.i64(ptr align 8 %10, ptr align 8 %18, i64 24, i1 false), !tbaa.struct !63
  call void @llvm.lifetime.end.p0(i64 24, ptr %18) #8
  %56 = load ptr, ptr %8, align 8, !tbaa !60
  %57 = load i32, ptr %9, align 4, !tbaa !9
  call void @populateKrausSuperOperatorN(ptr noundef %10, ptr noundef %56, i32 noundef %57)
  %58 = load ptr, ptr %6, align 8, !tbaa !4
  %59 = load i32, ptr %7, align 4, !tbaa !9
  call void @densmatr_applyMultiQubitKrausSuperoperator(ptr noundef byval(%struct.Qureg) align 8 %0, ptr noundef %58, i32 noundef %59, ptr noundef byval(%struct.ComplexMatrixN) align 8 %10)
  %60 = load ptr, ptr %11, align 8
  call void @llvm.stackrestore.p0(ptr %60)
  br label %68

61:                                               ; preds = %5
  call void @llvm.lifetime.start.p0(i64 24, ptr %19) #8
  %62 = load i32, ptr %7, align 4, !tbaa !9
  %63 = mul nsw i32 2, %62
  call void @createComplexMatrixN(ptr dead_on_unwind writable sret(%struct.ComplexMatrixN) align 8 %19, i32 noundef %63)
  call void @llvm.memcpy.p0.p0.i64(ptr align 8 %10, ptr align 8 %19, i64 24, i1 false), !tbaa.struct !63
  call void @llvm.lifetime.end.p0(i64 24, ptr %19) #8
  %64 = load ptr, ptr %8, align 8, !tbaa !60
  %65 = load i32, ptr %9, align 4, !tbaa !9
  call void @populateKrausSuperOperatorN(ptr noundef %10, ptr noundef %64, i32 noundef %65)
  %66 = load ptr, ptr %6, align 8, !tbaa !4
  %67 = load i32, ptr %7, align 4, !tbaa !9
  call void @densmatr_applyMultiQubitKrausSuperoperator(ptr noundef byval(%struct.Qureg) align 8 %0, ptr noundef %66, i32 noundef %67, ptr noundef byval(%struct.ComplexMatrixN) align 8 %10)
  call void @destroyComplexMatrixN(ptr noundef byval(%struct.ComplexMatrixN) align 8 %10)
  br label %68

68:                                               ; preds = %61, %22
  call void @llvm.lifetime.end.p0(i64 24, ptr %10) #8
  ret void
}