; Function Attrs: nounwind uwtable
define void @densmatr_mixMultiQubitKrausMap(ptr noundef readonly byval(%struct.Qureg) align 8 captures(none) %0, ptr noundef readonly captures(none) %1, i32 noundef %2, ptr noundef readonly captures(none) %3, i32 noundef %4) local_unnamed_addr #11 {
  %6 = alloca [200 x i32], align 16
  %7 = alloca [200 x i32], align 16
  %8 = alloca %struct.ComplexMatrixN, align 8
  call void @llvm.lifetime.start.p0(i64 24, ptr nonnull %8) #22
  %9 = icmp slt i32 %2, 4
  %10 = shl nsw i32 %2, 1
  br i1 %9, label %11, label %.lr.ph.i20

11:                                               ; preds = %5
  %12 = shl nuw nsw i32 1, %10
  %13 = zext nneg i32 %12 to i64
  %14 = tail call ptr @llvm.stacksave.p0()
  %15 = zext nneg i32 %10 to i64
  %16 = shl nuw i64 %13, %15
  %17 = alloca double, i64 %16, align 16
  %18 = alloca double, i64 %16, align 16
  %19 = alloca ptr, i64 %13, align 16
  %20 = alloca ptr, i64 %13, align 16
  br label %21

21:                                               ; preds = %21, %11
  %indvars.iv.i = phi i64 [ 0, %11 ], [ %indvars.iv.next.i, %21 ]
  %22 = shl i64 %indvars.iv.i, %15
  %23 = getelementptr inbounds double, ptr %17, i64 %22
  %24 = getelementptr inbounds nuw ptr, ptr %19, i64 %indvars.iv.i
  store ptr %23, ptr %24, align 8, !tbaa !19, !noalias !46
  %25 = getelementptr inbounds double, ptr %18, i64 %22
  %26 = getelementptr inbounds nuw ptr, ptr %20, i64 %indvars.iv.i
  store ptr %25, ptr %26, align 8, !tbaa !19, !noalias !46
  %indvars.iv.next.i = add nuw nsw i64 %indvars.iv.i, 1
  %exitcond.not.i = icmp eq i64 %indvars.iv.next.i, %13
  br i1 %exitcond.not.i, label %bindArraysToStackComplexMatrixN.exit, label %21

bindArraysToStackComplexMatrixN.exit:             ; preds = %21
  store i32 %10, ptr %8, align 8, !tbaa !4
  %.sroa.425.0..sroa_idx = getelementptr inbounds nuw i8, ptr %8, i64 8
  store ptr %19, ptr %.sroa.425.0..sroa_idx, align 8, !tbaa !49
  %.sroa.5.0..sroa_idx = getelementptr inbounds nuw i8, ptr %8, i64 16
  store ptr %20, ptr %.sroa.5.0..sroa_idx, align 8, !tbaa !49
  call void @populateKrausSuperOperatorN(ptr noundef nonnull %8, ptr noundef %3, i32 noundef %4)
  %.sroa.3.0..sroa_idx = getelementptr inbounds nuw i8, ptr %0, i64 4
  %.sroa.3.0.copyload = load i32, ptr %.sroa.3.0..sroa_idx, align 4
  call void @llvm.lifetime.start.p0(i64 800, ptr nonnull %7) #22
  %27 = icmp sgt i32 %2, 0
  br i1 %27, label %.lr.ph.i, label %densmatr_applyMultiQubitKrausSuperoperator.exit

.lr.ph.i:                                         ; preds = %bindArraysToStackComplexMatrixN.exit
  %28 = zext nneg i32 %2 to i64
  br label %29

29:                                               ; preds = %29, %.lr.ph.i
  %indvars.iv.i17 = phi i64 [ 0, %.lr.ph.i ], [ %indvars.iv.next.i18, %29 ]
  %30 = getelementptr inbounds nuw i32, ptr %1, i64 %indvars.iv.i17
  %31 = load i32, ptr %30, align 4, !tbaa !4
  %32 = getelementptr inbounds nuw [200 x i32], ptr %7, i64 0, i64 %indvars.iv.i17
  store i32 %31, ptr %32, align 4, !tbaa !4
  %33 = add nsw i32 %31, %.sroa.3.0.copyload
  %34 = add nuw nsw i64 %indvars.iv.i17, %28
  %35 = getelementptr inbounds nuw [200 x i32], ptr %7, i64 0, i64 %34
  store i32 %33, ptr %35, align 4, !tbaa !4
  %indvars.iv.next.i18 = add nuw nsw i64 %indvars.iv.i17, 1
  %exitcond.not.i19 = icmp eq i64 %indvars.iv.next.i18, %28
  br i1 %exitcond.not.i19, label %densmatr_applyMultiQubitKrausSuperoperator.exit, label %29

densmatr_applyMultiQubitKrausSuperoperator.exit:  ; preds = %29, %bindArraysToStackComplexMatrixN.exit
  call void @statevec_multiControlledMultiQubitUnitary(ptr noundef nonnull byval(%struct.Qureg) align 8 %0, i64 noundef 0, ptr noundef nonnull %7, i32 noundef %10, ptr noundef nonnull byval(%struct.ComplexMatrixN) align 8 %8) #22
  call void @llvm.lifetime.end.p0(i64 800, ptr nonnull %7) #22
  call void @llvm.stackrestore.p0(ptr %14)
  br label %44

.lr.ph.i20:                                       ; preds = %5
  call void @createComplexMatrixN(ptr dead_on_unwind nonnull writable sret(%struct.ComplexMatrixN) align 8 %8, i32 noundef %10) #22
  call void @populateKrausSuperOperatorN(ptr noundef nonnull %8, ptr noundef %3, i32 noundef %4)
  %.sroa.327.0..sroa_idx = getelementptr inbounds nuw i8, ptr %0, i64 4
  %.sroa.327.0.copyload = load i32, ptr %.sroa.327.0..sroa_idx, align 4
  call void @llvm.lifetime.start.p0(i64 800, ptr nonnull %6) #22
  %36 = zext nneg i32 %2 to i64
  br label %37

37:                                               ; preds = %37, %.lr.ph.i20
  %indvars.iv.i21 = phi i64 [ 0, %.lr.ph.i20 ], [ %indvars.iv.next.i22, %37 ]
  %38 = getelementptr inbounds nuw i32, ptr %1, i64 %indvars.iv.i21
  %39 = load i32, ptr %38, align 4, !tbaa !4
  %40 = getelementptr inbounds nuw [200 x i32], ptr %6, i64 0, i64 %indvars.iv.i21
  store i32 %39, ptr %40, align 4, !tbaa !4
  %41 = add nsw i32 %39, %.sroa.327.0.copyload
  %42 = add nuw nsw i64 %indvars.iv.i21, %36
  %43 = getelementptr inbounds nuw [200 x i32], ptr %6, i64 0, i64 %42
  store i32 %41, ptr %43, align 4, !tbaa !4
  %indvars.iv.next.i22 = add nuw nsw i64 %indvars.iv.i21, 1
  %exitcond.not.i23 = icmp eq i64 %indvars.iv.next.i22, %36
  br i1 %exitcond.not.i23, label %densmatr_applyMultiQubitKrausSuperoperator.exit24, label %37

densmatr_applyMultiQubitKrausSuperoperator.exit24: ; preds = %37
  call void @statevec_multiControlledMultiQubitUnitary(ptr noundef nonnull byval(%struct.Qureg) align 8 %0, i64 noundef 0, ptr noundef nonnull %6, i32 noundef %10, ptr noundef nonnull byval(%struct.ComplexMatrixN) align 8 %8) #22
  call void @llvm.lifetime.end.p0(i64 800, ptr nonnull %6) #22
  call void @destroyComplexMatrixN(ptr noundef nonnull byval(%struct.ComplexMatrixN) align 8 %8) #22
  br label %44

44:                                               ; preds = %densmatr_applyMultiQubitKrausSuperoperator.exit24, %densmatr_applyMultiQubitKrausSuperoperator.exit
  call void @llvm.lifetime.end.p0(i64 24, ptr nonnull %8) #22
  ret void
}